target datalayout = "e-m:e-p270:32:32-p271:32:32-p272:64:64-i64:64-i128:128-f80:128-n8:16:32:64-S128"
target triple = "x86_64-pc-linux-gnu"

%struct.cups_dest_s = type { ptr, ptr, i32, i32, ptr }
%struct.JNINativeInterface_ = type { ptr, ptr, ptr, ptr, ptr, ptr, ptr, ptr, ptr, ptr, ptr, ptr, ptr, ptr, ptr, ptr, ptr, ptr, ptr, ptr, ptr, ptr, ptr, ptr, ptr, ptr, ptr, ptr, ptr, ptr, ptr, ptr, ptr, ptr, ptr, ptr, ptr, ptr, ptr, ptr, ptr, ptr, ptr, ptr, ptr, ptr, ptr, ptr, ptr, ptr, ptr, ptr, ptr, ptr, ptr, ptr, ptr, ptr, ptr, ptr, ptr, ptr, ptr, ptr, ptr, ptr, ptr, ptr, ptr, ptr, ptr, ptr, ptr, ptr, ptr, ptr, ptr, ptr, ptr, ptr, ptr, ptr, ptr, ptr, ptr, ptr, ptr, ptr, ptr, ptr, ptr, ptr, ptr, ptr, ptr, ptr, ptr, ptr, ptr, ptr, ptr, ptr, ptr, ptr, ptr, ptr, ptr, ptr, ptr, ptr, ptr, ptr, ptr, ptr, ptr, ptr, ptr, ptr, ptr, ptr, ptr, ptr, ptr, ptr, ptr, ptr, ptr, ptr, ptr, ptr, ptr, ptr, ptr, ptr, ptr, ptr, ptr, ptr, ptr, ptr, ptr, ptr, ptr, ptr, ptr, ptr, ptr, ptr, ptr, ptr, ptr, ptr, ptr, ptr, ptr, ptr, ptr, ptr, ptr, ptr, ptr, ptr, ptr, ptr, ptr, ptr, ptr, ptr, ptr, ptr, ptr, ptr, ptr, ptr, ptr, ptr, ptr, ptr, ptr, ptr, ptr, ptr, ptr, ptr, ptr, ptr, ptr, ptr, ptr, ptr, ptr, ptr, ptr, ptr, ptr, ptr, ptr, ptr, ptr, ptr, ptr, ptr, ptr, ptr, ptr, ptr, ptr, ptr, ptr, ptr, ptr, ptr, ptr, ptr, ptr, ptr, ptr, ptr, ptr, ptr, ptr, ptr, ptr, ptr, ptr, ptr, ptr, ptr, ptr, ptr, ptr, ptr, ptr, ptr, ptr }

@j2d_cupsGetDests = hidden global ptr null, align 8
@j2d_cupsFreeDests = hidden global ptr null, align 8
@.str.14 = private unnamed_addr constant [17 x i8] c"java/lang/String\00", align 1

; Function Attrs: nounwind uwtable
define ptr @Java_sun_print_CUPSPrinter_getCupsDefaultPrinters(ptr noundef %0, ptr noundef %1) #0 {
  %3 = alloca ptr, align 8
  %4 = alloca ptr, align 8
  %5 = alloca ptr, align 8
  %6 = alloca ptr, align 8
  %7 = alloca i32, align 4
  %8 = alloca i32, align 4
  %9 = alloca i32, align 4
  %10 = alloca ptr, align 8
  %11 = alloca ptr, align 8
  %12 = alloca ptr, align 8
  store ptr %0, ptr %4, align 8
  store ptr %1, ptr %5, align 8
  store ptr null, ptr %12, align 8
  %13 = load ptr, ptr %4, align 8
  %14 = load ptr, ptr %13, align 8
  %15 = getelementptr inbounds %struct.JNINativeInterface_, ptr %14, i32 0, i32 6
  %16 = load ptr, ptr %15, align 8
  %17 = load ptr, ptr %4, align 8
  %18 = call ptr %16(ptr noundef %17, ptr noundef @.str.14)
  store ptr %18, ptr %11, align 8
  br label %19

19:                                               ; preds = %2
  %20 = load ptr, ptr %11, align 8
  %21 = icmp eq ptr %20, null
  br i1 %21, label %22, label %23

22:                                               ; preds = %19
  store ptr null, ptr %3, align 8
  br label %130

23:                                               ; preds = %19
  br label %24

24:                                               ; preds = %23
  %25 = load ptr, ptr @j2d_cupsGetDests, align 8
  %26 = call i32 %25(ptr noundef %6)
  store i32 %26, ptr %9, align 4
  %27 = load ptr, ptr %6, align 8
  %28 = icmp eq ptr %27, null
  br i1 %28, label %29, label %30

29:                                               ; preds = %24
  store ptr null, ptr %3, align 8
  br label %130

30:                                               ; preds = %24
  %31 = load ptr, ptr %4, align 8
  %32 = load ptr, ptr %31, align 8
  %33 = getelementptr inbounds %struct.JNINativeInterface_, ptr %32, i32 0, i32 172
  %34 = load ptr, ptr %33, align 8
  %35 = load ptr, ptr %4, align 8
  %36 = load i32, ptr %9, align 4
  %37 = load ptr, ptr %11, align 8
  %38 = call ptr %34(ptr noundef %35, i32 noundef %36, ptr noundef %37, ptr noundef null)
  store ptr %38, ptr %12, align 8
  %39 = load ptr, ptr %12, align 8
  %40 = icmp eq ptr %39, null
  br i1 %40, label %41, label %45

41:                                               ; preds = %30
  %42 = load ptr, ptr @j2d_cupsFreeDests, align 8
  %43 = load i32, ptr %9, align 4
  %44 = load ptr, ptr %6, align 8
  call void %42(i32 noundef %43, ptr noundef %44)
  store ptr null, ptr %3, align 8
  br label %130

45:                                               ; preds = %30
  store i32 0, ptr %7, align 4
  br label %46

46:                                               ; preds = %122, %45
  %47 = load i32, ptr %7, align 4
  %48 = load i32, ptr %9, align 4
  %49 = icmp slt i32 %47, %48
  br i1 %49, label %50, label %125

50:                                               ; preds = %46
  %51 = load ptr, ptr %4, align 8
  %52 = load ptr, ptr %6, align 8
  %53 = load i32, ptr %7, align 4
  %54 = sext i32 %53 to i64
  %55 = getelementptr inbounds %struct.cups_dest_s, ptr %52, i64 %54
  %56 = getelementptr inbounds %struct.cups_dest_s, ptr %55, i32 0, i32 0
  %57 = load ptr, ptr %56, align 8
  %58 = call ptr @JNU_NewStringPlatform(ptr noundef %51, ptr noundef %57)
  store ptr %58, ptr %10, align 8
  %59 = load ptr, ptr %10, align 8
  %60 = icmp eq ptr %59, null
  br i1 %60, label %61, label %107

61:                                               ; preds = %50
  %62 = load ptr, ptr %4, align 8
  %63 = load ptr, ptr %62, align 8
  %64 = getelementptr inbounds %struct.JNINativeInterface_, ptr %63, i32 0, i32 17
  %65 = load ptr, ptr %64, align 8
  %66 = load ptr, ptr %4, align 8
  call void %65(ptr noundef %66)
  %67 = load i32, ptr %7, align 4
  %68 = sub nsw i32 %67, 1
  store i32 %68, ptr %8, align 4
  br label %69

69:                                               ; preds = %94, %61
  %70 = load i32, ptr %8, align 4
  %71 = icmp sge i32 %70, 0
  br i1 %71, label %72, label %97

72:                                               ; preds = %69
  %73 = load ptr, ptr %4, align 8
  %74 = load ptr, ptr %73, align 8
  %75 = getelementptr inbounds %struct.JNINativeInterface_, ptr %74, i32 0, i32 173
  %76 = load ptr, ptr %75, align 8
  %77 = load ptr, ptr %4, align 8
  %78 = load ptr, ptr %12, align 8
  %79 = load i32, ptr %8, align 4
  %80 = call ptr %76(ptr noundef %77, ptr noundef %78, i32 noundef %79)
  store ptr %80, ptr %10, align 8
  %81 = load ptr, ptr %4, align 8
  %82 = load ptr, ptr %81, align 8
  %83 = getelementptr inbounds %struct.JNINativeInterface_, ptr %82, i32 0, i32 174
  %84 = load ptr, ptr %83, align 8
  %85 = load ptr, ptr %4, align 8
  %86 = load ptr, ptr %12, align 8
  %87 = load i32, ptr %8, align 4
  call void %84(ptr noundef %85, ptr noundef %86, i32 noundef %87, ptr noundef null)
  %88 = load ptr, ptr %4, align 8
  %89 = load ptr, ptr %88, align 8
  %90 = getelementptr inbounds %struct.JNINativeInterface_, ptr %89, i32 0, i32 23
  %91 = load ptr, ptr %90, align 8
  %92 = load ptr, ptr %4, align 8
  %93 = load ptr, ptr %10, align 8
  call void %91(ptr noundef %92, ptr noundef %93)
  store ptr null, ptr %10, align 8
  br label %94

94:                                               ; preds = %72
  %95 = load i32, ptr %8, align 4
  %96 = add nsw i32 %95, -1
  store i32 %96, ptr %8, align 4
  br label %69, !llvm.loop !6

97:                                               ; preds = %69
  %98 = load ptr, ptr @j2d_cupsFreeDests, align 8
  %99 = load i32, ptr %9, align 4
  %100 = load ptr, ptr %6, align 8
  call void %98(i32 noundef %99, ptr noundef %100)
  %101 = load ptr, ptr %4, align 8
  %102 = load ptr, ptr %101, align 8
  %103 = getelementptr inbounds %struct.JNINativeInterface_, ptr %102, i32 0, i32 23
  %104 = load ptr, ptr %103, align 8
  %105 = load ptr, ptr %4, align 8
  %106 = load ptr, ptr %12, align 8
  call void %104(ptr noundef %105, ptr noundef %106)
  store ptr null, ptr %3, align 8
  br label %130

107:                                              ; preds = %50
  %108 = load ptr, ptr %4, align 8
  %109 = load ptr, ptr %108, align 8
  %110 = getelementptr inbounds %struct.JNINativeInterface_, ptr %109, i32 0, i32 174
  %111 = load ptr, ptr %110, align 8
  %112 = load ptr, ptr %4, align 8
  %113 = load ptr, ptr %12, align 8
  %114 = load i32, ptr %7, align 4
  %115 = load ptr, ptr %10, align 8
  call void %111(ptr noundef %112, ptr noundef %113, i32 noundef %114, ptr noundef %115)
  %116 = load ptr, ptr %4, align 8
  %117 = load ptr, ptr %116, align 8
  %118 = getelementptr inbounds %struct.JNINativeInterface_, ptr %117, i32 0, i32 23
  %119 = load ptr, ptr %118, align 8
  %120 = load ptr, ptr %4, align 8
  %121 = load ptr, ptr %10, align 8
  call void %119(ptr noundef %120, ptr noundef %121)
  br label %122

122:                                              ; preds = %107
  %123 = load i32, ptr %7, align 4
  %124 = add nsw i32 %123, 1
  store i32 %124, ptr %7, align 4
  br label %46, !llvm.loop !8

125:                                              ; preds = %46
  %126 = load ptr, ptr @j2d_cupsFreeDests, align 8
  %127 = load i32, ptr %9, align 4
  %128 = load ptr, ptr %6, align 8
  call void %126(i32 noundef %127, ptr noundef %128)
  %129 = load ptr, ptr %12, align 8
  store ptr %129, ptr %3, align 8
  br label %130

130:                                              ; preds = %125, %97, %41, %29, %22
  %131 = load ptr, ptr %3, align 8
  ret ptr %131
}