; Function Attrs: nounwind uwtable
define ptr @Java_sun_print_CUPSPrinter_getCupsDefaultPrinters(ptr noundef %0, ptr nocapture noundef readnone %1) local_unnamed_addr #0 {
  %3 = alloca ptr, align 8
  %4 = load ptr, ptr %0, align 8
  %5 = getelementptr inbounds i8, ptr %4, i64 48
  %6 = load ptr, ptr %5, align 8
  %7 = tail call ptr %6(ptr noundef nonnull %0, ptr noundef nonnull @.str.14) #5
  %8 = icmp eq ptr %7, null
  br i1 %8, label %59, label %9

9:                                                ; preds = %2
  %10 = load ptr, ptr @j2d_cupsGetDests, align 8
  %11 = call i32 %10(ptr noundef nonnull %3) #5
  %12 = load ptr, ptr %3, align 8
  %13 = icmp eq ptr %12, null
  br i1 %13, label %59, label %14

14:                                               ; preds = %9
  %15 = load ptr, ptr %0, align 8
  %16 = getelementptr inbounds i8, ptr %15, i64 1376
  %17 = load ptr, ptr %16, align 8
  %18 = call ptr %17(ptr noundef nonnull %0, i32 noundef %11, ptr noundef nonnull %7, ptr noundef null) #5
  %19 = icmp eq ptr %18, null
  br i1 %19, label %21, label %.preheader

.preheader:                                       ; preds = %14
  %20 = icmp sgt i32 %11, 0
  br i1 %20, label %.lr.ph.preheader, label %._crit_edge

.lr.ph.preheader:                                 ; preds = %.preheader
  %wide.trip.count = zext nneg i32 %11 to i64
  br label %.lr.ph

21:                                               ; preds = %14
  %22 = load ptr, ptr @j2d_cupsFreeDests, align 8
  %23 = load ptr, ptr %3, align 8
  call void %22(i32 noundef %11, ptr noundef %23) #5
  br label %59

.lr.ph:                                           ; preds = %.lr.ph.preheader, %50
  %indvars.iv = phi i64 [ 0, %.lr.ph.preheader ], [ %indvars.iv.next, %50 ]
  %24 = load ptr, ptr %3, align 8
  %25 = getelementptr inbounds %struct.cups_dest_s, ptr %24, i64 %indvars.iv
  %26 = load ptr, ptr %25, align 8
  %27 = call ptr @JNU_NewStringPlatform(ptr noundef nonnull %0, ptr noundef %26) #5
  %28 = icmp eq ptr %27, null
  %29 = load ptr, ptr %0, align 8
  br i1 %28, label %30, label %50

30:                                               ; preds = %.lr.ph
  %31 = getelementptr inbounds i8, ptr %29, i64 136
  %32 = load ptr, ptr %31, align 8
  call void %32(ptr noundef nonnull %0) #5
  %.not = icmp eq i64 %indvars.iv, 0
  br i1 %.not, label %._crit_edge56, label %.lr.ph55.preheader

.lr.ph55.preheader:                               ; preds = %30
  %33 = trunc nuw nsw i64 %indvars.iv to i32
  br label %.lr.ph55

.lr.ph55:                                         ; preds = %.lr.ph55.preheader, %.lr.ph55
  %.046.in53 = phi i32 [ %.046, %.lr.ph55 ], [ %33, %.lr.ph55.preheader ]
  %.046 = add nsw i32 %.046.in53, -1
  %34 = load ptr, ptr %0, align 8
  %35 = getelementptr inbounds i8, ptr %34, i64 1384
  %36 = load ptr, ptr %35, align 8
  %37 = call ptr %36(ptr noundef nonnull %0, ptr noundef nonnull %18, i32 noundef %.046) #5
  %38 = load ptr, ptr %0, align 8
  %39 = getelementptr inbounds i8, ptr %38, i64 1392
  %40 = load ptr, ptr %39, align 8
  call void %40(ptr noundef nonnull %0, ptr noundef nonnull %18, i32 noundef %.046, ptr noundef null) #5
  %41 = load ptr, ptr %0, align 8
  %42 = getelementptr inbounds i8, ptr %41, i64 184
  %43 = load ptr, ptr %42, align 8
  call void %43(ptr noundef nonnull %0, ptr noundef %37) #5
  %44 = icmp sgt i32 %.046.in53, 1
  br i1 %44, label %.lr.ph55, label %._crit_edge56, !llvm.loop !6

._crit_edge56:                                    ; preds = %.lr.ph55, %30
  %45 = load ptr, ptr @j2d_cupsFreeDests, align 8
  %46 = load ptr, ptr %3, align 8
  call void %45(i32 noundef %11, ptr noundef %46) #5
  %47 = load ptr, ptr %0, align 8
  %48 = getelementptr inbounds i8, ptr %47, i64 184
  %49 = load ptr, ptr %48, align 8
  call void %49(ptr noundef nonnull %0, ptr noundef nonnull %18) #5
  br label %59

50:                                               ; preds = %.lr.ph
  %51 = getelementptr inbounds i8, ptr %29, i64 1392
  %52 = load ptr, ptr %51, align 8
  %53 = trunc nuw nsw i64 %indvars.iv to i32
  call void %52(ptr noundef nonnull %0, ptr noundef nonnull %18, i32 noundef %53, ptr noundef nonnull %27) #5
  %54 = load ptr, ptr %0, align 8
  %55 = getelementptr inbounds i8, ptr %54, i64 184
  %56 = load ptr, ptr %55, align 8
  call void %56(ptr noundef nonnull %0, ptr noundef nonnull %27) #5
  %indvars.iv.next = add nuw nsw i64 %indvars.iv, 1
  %exitcond.not = icmp eq i64 %indvars.iv.next, %wide.trip.count
  br i1 %exitcond.not, label %._crit_edge, label %.lr.ph, !llvm.loop !8

._crit_edge:                                      ; preds = %50, %.preheader
  %57 = load ptr, ptr @j2d_cupsFreeDests, align 8
  %58 = load ptr, ptr %3, align 8
  call void %57(i32 noundef %11, ptr noundef %58) #5
  br label %59

59:                                               ; preds = %9, %2, %._crit_edge, %._crit_edge56, %21
  %.0 = phi ptr [ null, %21 ], [ null, %._crit_edge56 ], [ %18, %._crit_edge ], [ null, %2 ], [ null, %9 ]
  ret ptr %.0
}